(dp0
S"<subj> 'm"
p1
(dp2
S'type'
p3
S'subj'
p4
sS'freq'
p5
I15
sS'subj_freq'
p6
I15
sS'display'
p7
S"'m"
p8
sS'prob'
p9
F1.0
ssV<subj> tracks
p10
(dp11
S'subj_freq'
p12
I9
sS'freq'
p13
I9
sS'type'
p14
S'subj'
p15
sS'display'
p16
Vtracks
p17
sS'prob'
p18
F1.0
ssS'<subj> announced'
p19
(dp20
S'subj_freq'
p21
I0
sS'freq'
p22
I1
sS'type'
p23
S'subj'
p24
sS'display'
p25
S'announced'
p26
sS'prob'
p27
F0.0
ssS'<subj> file'
p28
(dp29
g21
I1
sg22
I1
sg23
g24
sg25
S'file'
p30
sg27
F1.0
ssS'to gain <dobj>'
p31
(dp32
g21
I1
sg22
I1
sg23
S'dobj'
p33
sg25
S'to gain'
p34
sg27
F1.0
ssS'<subj> gain'
p35
(dp36
g21
I1
sg22
I1
sg23
g24
sg25
S'gain'
p37
sg27
F1.0
ssVkeep <dobj>
p38
(dp39
g12
I9
sg13
I9
sg14
S'dobj'
p40
sg16
Vkeep
p41
sg18
F1.0
ssS'exploit <dobj>'
p42
(dp43
S'type'
p44
S'dobj'
p45
sS'freq'
p46
I2
sS'subj_freq'
p47
I2
sS'display'
p48
S'exploit'
p49
sS'prob'
p50
F1.0
ssS'<subj> found'
p51
(dp52
S'type'
p53
S'subj'
p54
sS'freq'
p55
I4
sS'subj_freq'
p56
I4
sS'display'
p57
S'found'
p58
sS'prob'
p59
F1.0
ssS'<subj> sold information'
p60
(dp61
g21
I0
sg22
I1
sg23
g24
sg25
S'sold information'
p62
sg27
F0.0
ssS'file <dobj>'
p63
(dp64
g21
I1
sg22
I1
sg23
g33
sg25
S'file'
p65
sg27
F1.0
ssV<subj> Compiled
p66
(dp67
g12
I9
sg13
I9
sg14
g15
sg16
VCompiled
p68
sg18
F1.0
ssS'<subj> felt'
p69
(dp70
S'subj_freq'
p71
I3
sS'freq'
p72
I3
sS'type'
p73
S'subj'
p74
sS'display'
p75
S'felt'
p76
sS'prob'
p77
F1.0
ssV<subj> read
p78
(dp79
S'type'
p80
S'subj'
p81
sS'freq'
p82
I43
sS'subj_freq'
p83
I43
sS'display'
p84
Vread
p85
sS'prob'
p86
F1.0
ssS'<subj> collects'
p87
(dp88
g21
I0
sg22
I1
sg23
g24
sg25
S'collects'
p89
sg27
F0.0
ssS'<subj> pointed'
p90
(dp91
g21
I1
sg22
I1
sg23
g24
sg25
S'pointed'
p92
sg27
F1.0
ssV<subj> 'm nurse
p93
(dp94
S'type'
p95
S'subj'
p96
sS'freq'
p97
I2
sS'subj_freq'
p98
I2
sS'display'
p99
V'm nurse
p100
sS'prob'
p101
F1.0
ssS'to educated <dobj>'
p102
(dp103
g21
I0
sg22
I1
sg23
g33
sg25
S'to educated'
p104
sg27
F0.0
ssS'continue to increase <dobj>'
p105
(dp106
g21
I0
sg22
I1
sg23
g33
sg25
S'continue to increase'
p107
sg27
F0.0
ssV<subj> get
p108
(dp109
g12
I11
sg13
I11
sg14
g15
sg16
Vget
p110
sg18
F1.0
ssV<subj> give
p111
(dp112
g80
g81
sg82
I45
sg83
I45
sg84
Vgive
p113
sg86
F1.0
ssV<subj> keep
p114
(dp115
g12
I9
sg13
I9
sg14
g15
sg16
Vkeep
p116
sg18
F1.0
ssS'<subj> commit'
p117
(dp118
g21
I0
sg22
I1
sg23
g24
sg25
S'commit'
p119
sg27
F0.0
ssS'continue <dobj>'
p120
(dp121
g21
I0
sg22
I1
sg23
g33
sg25
S'continue'
p122
sg27
F0.0
ssS'see <dobj>'
p123
(dp124
g21
I1
sg22
I2
sg23
g33
sg25
S'see'
p125
sg27
F0.5
ssV<subj> was blown
p126
(dp127
g80
g81
sg82
I42
sg83
I42
sg84
Vwas blown
p128
sg86
F1.0
ssS'collects <dobj>'
p129
(dp130
g21
I0
sg22
I1
sg23
g33
sg25
S'collects'
p131
sg27
F0.0
ssS'secure <dobj>'
p132
(dp133
g21
I1
sg22
I2
sg23
g33
sg25
S'secure'
p134
sg27
F0.5
ssS'think <dobj>'
p135
(dp136
S'subj_freq'
p137
I5
sS'freq'
p138
I5
sS'type'
p139
S'dobj'
p140
sS'display'
p141
S'think'
p142
sS'prob'
p143
F1.0
ssS'discarded <dobj>'
p144
(dp145
g44
g45
sg46
I1
sg47
I1
sg48
S'discarded'
p146
sg50
F1.0
ssS'<subj> increasing hope'
p147
(dp148
g21
I1
sg22
I1
sg23
g24
sg25
S'increasing hope'
p149
sg27
F1.0
ssS'<subj> sent'
p150
(dp151
g21
I1
sg22
I2
sg23
g24
sg25
S'sent'
p152
sg27
F0.5
ssS'sharing <dobj>'
p153
(dp154
g12
I0
sg13
I14
sg14
g40
sg16
S'sharing'
p155
sg18
F0.0
ssS'do <dobj>'
p156
(dp157
g21
I1
sg22
I1
sg23
g33
sg25
S'do'
p158
sg27
F1.0
ssS'<subj> fallen'
p159
(dp160
g21
I0
sg22
I1
sg23
g24
sg25
S'fallen'
p161
sg27
F0.0
ssS'<subj> see'
p162
(dp163
g21
I1
sg22
I2
sg23
g24
sg25
S'see'
p164
sg27
F0.5
ssS'<subj> enabled network'
p165
(dp166
g44
S'subj'
p167
sg46
I1
sg47
I1
sg48
S'enabled network'
p168
sg50
F1.0
ssS'provide <dobj>'
p169
(dp170
g21
I1
sg22
I1
sg23
g33
sg25
S'provide'
p171
sg27
F1.0
ssV<subj> imagined
p172
(dp173
g12
I9
sg13
I9
sg14
g15
sg16
Vimagined
p174
sg18
F1.0
ssV<subj> watched
p175
(dp176
g80
g81
sg82
I33
sg83
I33
sg84
Vwatched
p177
sg86
F1.0
ssS'<subj> reach network'
p178
(dp179
g44
g167
sg46
I1
sg47
I1
sg48
S'reach network'
p180
sg50
F1.0
ssS'<subj> come'
p181
(dp182
g21
I0
sg22
I1
sg23
g24
sg25
S'come'
p183
sg27
F0.0
ssS'<subj> provided'
p184
(dp185
g21
I1
sg22
I1
sg23
g24
sg25
S'provided'
p186
sg27
F1.0
ssS'<subj> using'
p187
(dp188
g21
I1
sg22
I1
sg23
g24
sg25
S'using'
p189
sg27
F1.0
ssS'make <dobj>'
p190
(dp191
g21
I1
sg22
I1
sg23
g33
sg25
S'make'
p192
sg27
F1.0
ssS'span in <np>'
p193
(dp194
g21
I0
sg22
I1
sg23
S'np'
p195
sg25
S'span in'
p196
sg27
F0.0
ssS'<subj> had beginning'
p197
(dp198
g21
I0
sg22
I1
sg23
g24
sg25
S'had beginning'
p199
sg27
F0.0
ssS'<subj> are sent'
p200
(dp201
g21
I1
sg22
I2
sg23
g24
sg25
S'are sent'
p202
sg27
F0.5
ssS'tailored <dobj>'
p203
(dp204
g21
I0
sg22
I1
sg23
g33
sg25
S'tailored'
p205
sg27
F0.0
ssS'felt <dobj>'
p206
(dp207
g71
I3
sg72
I3
sg73
S'dobj'
p208
sg75
S'felt'
p209
sg77
F1.0
ssVwatched <dobj>
p210
(dp211
g80
S'dobj'
p212
sg82
I33
sg83
I33
sg84
Vwatched
p213
sg86
F1.0
ssS'<subj> referred organizations'
p214
(dp215
g21
I0
sg22
I1
sg23
g24
sg25
S'referred organizations'
p216
sg27
F0.0
ssS'<subj> making attack'
p217
(dp218
g21
I1
sg22
I1
sg23
g24
sg25
S'making attack'
p219
sg27
F1.0
ssS'<subj> means'
p220
(dp221
g21
I1
sg22
I1
sg23
g24
sg25
S'means'
p222
sg27
F1.0
ssS'<subj> directed individuals'
p223
(dp224
g21
I0
sg22
I1
sg23
g24
sg25
S'directed individuals'
p225
sg27
F0.0
ssVfeatured <dobj>
p226
(dp227
g12
I9
sg13
I9
sg14
g40
sg16
Vfeatured
p228
sg18
F1.0
ssS'<subj> discarded'
p229
(dp230
g44
g167
sg46
I1
sg47
I1
sg48
S'discarded'
p231
sg50
F1.0
ssV<subj> posted people
p232
(dp233
g80
g81
sg82
I42
sg83
I42
sg84
Vposted people
p234
sg86
F1.0
ssVdid <dobj>
p235
(dp236
g80
g212
sg82
I34
sg83
I34
sg84
Vdid
p237
sg86
F1.0
ssS'<subj> ask'
p238
(dp239
g21
I0
sg22
I1
sg23
g24
sg25
S'ask'
p240
sg27
F0.0
ssS'fallen <dobj>'
p241
(dp242
g21
I0
sg22
I1
sg23
g33
sg25
S'fallen'
p243
sg27
F0.0
ssS'<subj> combat'
p244
(dp245
g21
I0
sg22
I1
sg23
g24
sg25
S'combat'
p246
sg27
F0.0
ssS'<subj> working'
p247
(dp248
g21
I0
sg22
I1
sg23
g24
sg25
S'working'
p249
sg27
F0.0
ssS'<subj> think'
p250
(dp251
g137
I5
sg138
I5
sg139
S'subj'
p252
sg141
S'think'
p253
sg143
F1.0
ssVCalled <dobj>
p254
(dp255
g12
I23
sg13
I23
sg14
g40
sg16
VCalled
p256
sg18
F1.0
ssS'<subj> conduct'
p257
(dp258
g21
I1
sg22
I1
sg23
g24
sg25
S'conduct'
p259
sg27
F1.0
ssS'to commit <dobj>'
p260
(dp261
g21
I0
sg22
I1
sg23
g33
sg25
S'to commit'
p262
sg27
F0.0
ssS'<subj> educated individuals'
p263
(dp264
g21
I0
sg22
I1
sg23
g24
sg25
S'educated individuals'
p265
sg27
F0.0
ssS'<subj> directed'
p266
(dp267
g21
I0
sg22
I1
sg23
g24
sg25
S'directed'
p268
sg27
F0.0
ssV<subj> blown
p269
(dp270
g80
g81
sg82
I42
sg83
I42
sg84
Vblown
p271
sg86
F1.0
ssS"'m <dobj>"
p272
(dp273
g3
S'dobj'
p274
sg5
I15
sg6
I15
sg7
S"'m"
p275
sg9
F1.0
ssS'<subj> bypass companies'
p276
(dp277
g21
I1
sg22
I1
sg23
g24
sg25
S'bypass companies'
p278
sg27
F1.0
ssS'<subj> file operators'
p279
(dp280
g21
I1
sg22
I1
sg23
g24
sg25
S'file operators'
p281
sg27
F1.0
ssVblown <dobj>
p282
(dp283
g80
g212
sg82
I42
sg83
I42
sg84
Vblown
p284
sg86
F1.0
ssS'<subj> felt businesses'
p285
(dp286
g71
I3
sg72
I3
sg73
g74
sg75
S'felt businesses'
p287
sg77
F1.0
ssS'<subj> exploit'
p288
(dp289
g44
g167
sg46
I2
sg47
I2
sg48
S'exploit'
p290
sg50
F1.0
ssV<subj> Called Land
p291
(dp292
g12
I23
sg13
I23
sg14
g15
sg16
VCalled Land
p293
sg18
F1.0
ssS'<subj> found presentation'
p294
(dp295
g53
g54
sg55
I4
sg56
I4
sg57
S'found presentation'
p296
sg59
F1.0
ssS'<subj> continue to increase'
p297
(dp298
g21
I0
sg22
I1
sg23
g24
sg25
S'continue to increase'
p299
sg27
F0.0
ssS'referred <dobj>'
p300
(dp301
g21
I0
sg22
I1
sg23
g33
sg25
S'referred'
p302
sg27
F0.0
ssS'<subj> fall'
p303
(dp304
g21
I0
sg22
I1
sg23
g24
sg25
S'fall'
p305
sg27
F0.0
ssS'<subj> protect'
p306
(dp307
g21
I1
sg22
I1
sg23
g24
sg25
S'protect'
p308
sg27
F1.0
ssV<subj> posted
p309
(dp310
g80
g81
sg82
I42
sg83
I42
sg84
Vposted
p311
sg86
F1.0
ssS'intended <dobj>'
p312
(dp313
g44
g45
sg46
I1
sg47
I1
sg48
S'intended'
p314
sg50
F1.0
ssS'<subj> get information'
p315
(dp316
g21
I1
sg22
I1
sg23
g24
sg25
S'get information'
p317
sg27
F1.0
ssV<subj> wait
p318
(dp319
g12
I7
sg13
I7
sg14
g15
sg16
Vwait
p320
sg18
F1.0
ssS'provided <dobj>'
p321
(dp322
g21
I1
sg22
I1
sg23
g33
sg25
S'provided'
p323
sg27
F1.0
ssV<subj> Called Ad
p324
(dp325
g12
I14
sg13
I14
sg14
g15
sg16
VCalled Ad
p326
sg18
F1.0
ssS'<subj> used'
p327
(dp328
g21
I1
sg22
I3
sg23
g24
sg25
S'used'
p329
sg27
F0.3333333333333333
ssS'<subj> enabled'
p330
(dp331
g44
g167
sg46
I1
sg47
I1
sg48
S'enabled'
p332
sg50
F1.0
ssS'<subj> use'
p333
(dp334
g21
I1
sg22
I1
sg23
g24
sg25
S'use'
p335
sg27
F1.0
ssS'<subj> fallen beginning'
p336
(dp337
g21
I0
sg22
I1
sg23
g24
sg25
S'fallen beginning'
p338
sg27
F0.0
ssS'<subj> fall victim'
p339
(dp340
g21
I0
sg22
I1
sg23
g24
sg25
S'fall victim'
p341
sg27
F0.0
ssS'educated <dobj>'
p342
(dp343
g21
I0
sg22
I1
sg23
g33
sg25
S'educated'
p344
sg27
F0.0
ssS'found <dobj>'
p345
(dp346
g53
S'dobj'
p347
sg55
I4
sg56
I4
sg57
S'found'
p348
sg59
F1.0
ssS'arrested <dobj>'
p349
(dp350
g44
g45
sg46
I1
sg47
I1
sg48
S'arrested'
p351
sg50
F1.0
ssS'counting <dobj>'
p352
(dp353
g21
I0
sg22
I1
sg23
g33
sg25
S'counting'
p354
sg27
F0.0
ssS'<subj> provide'
p355
(dp356
g21
I1
sg22
I1
sg23
g24
sg25
S'provide'
p357
sg27
F1.0
ssS'learning <dobj>'
p358
(dp359
S'subj_freq'
p360
I8
sS'freq'
p361
I8
sS'type'
p362
S'dobj'
p363
sS'display'
p364
S'learning'
p365
sS'prob'
p366
F1.0
ssVimagined <dobj>
p367
(dp368
g12
I9
sg13
I9
sg14
g40
sg16
Vimagined
p369
sg18
F1.0
ssS'<subj> educated'
p370
(dp371
g21
I0
sg22
I1
sg23
g24
sg25
S'educated'
p372
sg27
F0.0
ssS'<subj> appearing'
p373
(dp374
g21
I0
sg22
I1
sg23
g24
sg25
S'appearing'
p375
sg27
F0.0
ssS'<subj> do'
p376
(dp377
g21
I1
sg22
I1
sg23
g24
sg25
S'do'
p378
sg27
F1.0
ssS'<subj> gain information'
p379
(dp380
g21
I1
sg22
I1
sg23
g24
sg25
S'gain information'
p381
sg27
F1.0
ssS'to get <dobj>'
p382
(dp383
g21
I1
sg22
I1
sg23
g33
sg25
S'to get'
p384
sg27
F1.0
ssV<subj> get seat
p385
(dp386
g12
I9
sg13
I9
sg14
g15
sg16
Vget seat
p387
sg18
F1.0
ssS'gain <dobj>'
p388
(dp389
g21
I1
sg22
I1
sg23
g33
sg25
S'gain'
p390
sg27
F1.0
ssS'<subj> tailored'
p391
(dp392
g21
I0
sg22
I1
sg23
g24
sg25
S'tailored'
p393
sg27
F0.0
ssS'sold <dobj>'
p394
(dp395
g21
I1
sg22
I2
sg23
g33
sg25
S'sold'
p396
sg27
F0.5
ssS'making <dobj>'
p397
(dp398
g21
I1
sg22
I1
sg23
g33
sg25
S'making'
p399
sg27
F1.0
ssS'<subj> acting'
p400
(dp401
g21
I1
sg22
I1
sg23
g24
sg25
S'acting'
p402
sg27
F1.0
ssVreleased <dobj>
p403
(dp404
g12
I9
sg13
I9
sg14
g40
sg16
Vreleased
p405
sg18
F1.0
ssS'<subj> increasing'
p406
(dp407
g21
I1
sg22
I1
sg23
g24
sg25
S'increasing'
p408
sg27
F1.0
ssS'to means <dobj>'
p409
(dp410
g71
I3
sg72
I3
sg73
g208
sg75
S'to means'
p411
sg77
F1.0
ssS'install <dobj>'
p412
(dp413
g44
g45
sg46
I1
sg47
I1
sg48
S'install'
p414
sg50
F1.0
ssS'starts <dobj>'
p415
(dp416
g21
I0
sg22
I1
sg23
g33
sg25
S'starts'
p417
sg27
F0.0
ssS'sent <dobj>'
p418
(dp419
g21
I1
sg22
I2
sg23
g33
sg25
S'sent'
p420
sg27
F0.5
ssVposted <dobj>
p421
(dp422
g80
g212
sg82
I42
sg83
I42
sg84
Vposted
p423
sg86
F1.0
ssS'appearing to come <dobj>'
p424
(dp425
g21
I0
sg22
I1
sg23
g33
sg25
S'appearing to come'
p426
sg27
F0.0
ssS'announced <dobj>'
p427
(dp428
g21
I0
sg22
I1
sg23
g33
sg25
S'announced'
p429
sg27
F0.0
ssS'<subj> announced beginning'
p430
(dp431
g21
I0
sg22
I1
sg23
g24
sg25
S'announced beginning'
p432
sg27
F0.0
ssVCompiled <dobj>
p433
(dp434
g12
I9
sg13
I9
sg14
g40
sg16
VCompiled
p435
sg18
F1.0
ssS'to bypass <dobj>'
p436
(dp437
g21
I1
sg22
I1
sg23
g33
sg25
S'to bypass'
p438
sg27
F1.0
ssS'fall <dobj>'
p439
(dp440
g21
I0
sg22
I1
sg23
g33
sg25
S'fall'
p441
sg27
F0.0
ssS'title at <np>'
p442
(dp443
g21
I1
sg22
I1
sg23
g195
sg25
S'title at'
p444
sg27
F1.0
ssV<subj> forces
p445
(dp446
g80
g81
sg82
I33
sg83
I33
sg84
Vforces
p447
sg86
F1.0
ssV<subj> released
p448
(dp449
g12
I9
sg13
I9
sg14
g15
sg16
Vreleased
p450
sg18
F1.0
ssS'bypass <dobj>'
p451
(dp452
g21
I1
sg22
I1
sg23
g33
sg25
S'bypass'
p453
sg27
F1.0
ssS'to sent <dobj>'
p454
(dp455
g21
I0
sg22
I1
sg23
g33
sg25
S'to sent'
p456
sg27
F0.0
ssVtracks <dobj>
p457
(dp458
g12
I9
sg13
I9
sg14
g40
sg16
Vtracks
p459
sg18
F1.0
ssS'<subj> experienced'
p460
(dp461
g21
I0
sg22
I1
sg23
g24
sg25
S'experienced'
p462
sg27
F0.0
ssS'<subj> taking threat'
p463
(dp464
g71
I3
sg72
I3
sg73
g74
sg75
S'taking threat'
p465
sg77
F1.0
ssS'<subj> appearing to come'
p466
(dp467
g21
I0
sg22
I1
sg23
g24
sg25
S'appearing to come'
p468
sg27
F0.0
ssS'<subj> sent ones'
p469
(dp470
g21
I0
sg22
I1
sg23
g24
sg25
S'sent ones'
p471
sg27
F0.0
ssS'<subj> arrested'
p472
(dp473
g44
g167
sg46
I1
sg47
I1
sg48
S'arrested'
p474
sg50
F1.0
ssS'using <dobj>'
p475
(dp476
g21
I1
sg22
I1
sg23
g33
sg25
S'using'
p477
sg27
F1.0
ssS'returns in <np>'
p478
(dp479
g21
I1
sg22
I1
sg23
g195
sg25
S'returns in'
p480
sg27
F1.0
ssS'combat <dobj>'
p481
(dp482
g21
I0
sg22
I1
sg23
g33
sg25
S'combat'
p483
sg27
F0.0
ssS'<subj> reach'
p484
(dp485
g44
g167
sg46
I1
sg47
I1
sg48
S'reach'
p486
sg50
F1.0
ssS'<subj> think work'
p487
(dp488
g21
I1
sg22
I1
sg23
g24
sg25
S'think work'
p489
sg27
F1.0
ssS'<subj> exploit kit'
p490
(dp491
g44
g167
sg46
I2
sg47
I2
sg48
S'exploit kit'
p492
sg50
F1.0
ssS'<subj> continue'
p493
(dp494
g21
I0
sg22
I1
sg23
g24
sg25
S'continue'
p495
sg27
F0.0
ssS'<subj> are referred'
p496
(dp497
g21
I0
sg22
I1
sg23
g24
sg25
S'are referred'
p498
sg27
F0.0
ssS'experienced <dobj>'
p499
(dp500
g21
I0
sg22
I1
sg23
g33
sg25
S'experienced'
p501
sg27
F0.0
ssS'<subj> be educated'
p502
(dp503
g21
I0
sg22
I1
sg23
g24
sg25
S'be educated'
p504
sg27
F0.0
ssVread <dobj>
p505
(dp506
g80
g212
sg82
I43
sg83
I43
sg84
Vread
p507
sg86
F1.0
ssS'avoid <dobj>'
p508
(dp509
g21
I0
sg22
I1
sg23
g33
sg25
S'avoid'
p510
sg27
F0.0
ssS'<subj> sharing'
p511
(dp512
g12
I0
sg13
I14
sg14
g15
sg16
S'sharing'
p513
sg18
F0.0
ssV<subj> bring
p514
(dp515
g12
I9
sg13
I9
sg14
g15
sg16
Vbring
p516
sg18
F1.0
ssVcapture <dobj>
p517
(dp518
g12
I9
sg13
I9
sg14
g40
sg16
Vcapture
p519
sg18
F1.0
ssS'<subj> starts'
p520
(dp521
g21
I0
sg22
I1
sg23
g24
sg25
S'starts'
p522
sg27
F0.0
ssS'pointed <dobj>'
p523
(dp524
g21
I1
sg22
I1
sg23
g33
sg25
S'pointed'
p525
sg27
F1.0
ssS'<subj> sold'
p526
(dp527
g21
I1
sg22
I2
sg23
g24
sg25
S'sold'
p528
sg27
F0.5
ssS'to combat <dobj>'
p529
(dp530
g21
I0
sg22
I1
sg23
g33
sg25
S'to combat'
p531
sg27
F0.0
ssS'<subj> had network'
p532
(dp533
g44
g167
sg46
I1
sg47
I1
sg48
S'had network'
p534
sg50
F1.0
ssS'<subj> fallen victim'
p535
(dp536
g21
I0
sg22
I1
sg23
g24
sg25
S'fallen victim'
p537
sg27
F0.0
ssS'means <dobj>'
p538
(dp539
g21
I1
sg22
I1
sg23
g33
sg25
S'means'
p540
sg27
F1.0
ssVget <dobj>
p541
(dp542
g12
I11
sg13
I11
sg14
g40
sg16
Vget
p543
sg18
F1.0
ssVbring <dobj>
p544
(dp545
g12
I9
sg13
I9
sg14
g40
sg16
Vbring
p546
sg18
F1.0
ssS'appearing <dobj>'
p547
(dp548
g21
I0
sg22
I1
sg23
g33
sg25
S'appearing'
p549
sg27
F0.0
ssS'<subj> was arrested'
p550
(dp551
g44
g167
sg46
I1
sg47
I1
sg48
S'was arrested'
p552
sg50
F1.0
ssS'taking <dobj>'
p553
(dp554
g71
I3
sg72
I3
sg73
g208
sg75
S'taking'
p555
sg77
F1.0
ssV<subj> conveyed
p556
(dp557
g12
I9
sg13
I9
sg14
g15
sg16
Vconveyed
p558
sg18
F1.0
ssS'<subj> make security'
p559
(dp560
g21
I1
sg22
I1
sg23
g24
sg25
S'make security'
p561
sg27
F1.0
ssS'tell <dobj>'
p562
(dp563
g21
I0
sg22
I1
sg23
g33
sg25
S'tell'
p564
sg27
F0.0
ssS'records of <np>'
p565
(dp566
g21
I0
sg22
I2
sg23
g195
sg25
S'records of'
p567
sg27
F0.0
ssS'enabled <dobj>'
p568
(dp569
g44
g45
sg46
I1
sg47
I1
sg48
S'enabled'
p570
sg50
F1.0
ssS'<subj> referred'
p571
(dp572
g21
I0
sg22
I1
sg23
g24
sg25
S'referred'
p573
sg27
F0.0
ssV<subj> featured
p574
(dp575
g12
I9
sg13
I9
sg14
g15
sg16
Vfeatured
p576
sg18
F1.0
ssS'<subj> conduct transactions'
p577
(dp578
g21
I1
sg22
I1
sg23
g24
sg25
S'conduct transactions'
p579
sg27
F1.0
ssS'commit <dobj>'
p580
(dp581
g21
I0
sg22
I1
sg23
g33
sg25
S'commit'
p582
sg27
F0.0
ssS'directed <dobj>'
p583
(dp584
g21
I0
sg22
I1
sg23
g33
sg25
S'directed'
p585
sg27
F0.0
ssVconveyed <dobj>
p586
(dp587
g12
I9
sg13
I9
sg14
g40
sg16
Vconveyed
p588
sg18
F1.0
ssS'ask <dobj>'
p589
(dp590
g21
I0
sg22
I1
sg23
g33
sg25
S'ask'
p591
sg27
F0.0
ssVwait <dobj>
p592
(dp593
g12
I7
sg13
I7
sg14
g40
sg16
Vwait
p594
sg18
F1.0
ssVforces <dobj>
p595
(dp596
g80
g212
sg82
I33
sg83
I33
sg84
Vforces
p597
sg86
F1.0
ssV<subj> did
p598
(dp599
g80
g81
sg82
I34
sg83
I34
sg84
Vdid
p600
sg86
F1.0
ssS'come <dobj>'
p601
(dp602
g21
I0
sg22
I1
sg23
g33
sg25
S'come'
p603
sg27
F0.0
ssS'<subj> has security'
p604
(dp605
g21
I1
sg22
I1
sg23
g24
sg25
S'has security'
p606
sg27
F1.0
ssS'<subj> make'
p607
(dp608
g21
I1
sg22
I1
sg23
g24
sg25
S'make'
p609
sg27
F1.0
ssS'<subj> secure'
p610
(dp611
g21
I1
sg22
I2
sg23
g24
sg25
S'secure'
p612
sg27
F0.5
ssS'use <dobj>'
p613
(dp614
g21
I1
sg22
I1
sg23
g33
sg25
S'use'
p615
sg27
F1.0
ssS'<subj> collects tax'
p616
(dp617
g21
I0
sg22
I1
sg23
g24
sg25
S'collects tax'
p618
sg27
F0.0
ssS'<subj> making'
p619
(dp620
g21
I1
sg22
I1
sg23
g24
sg25
S'making'
p621
sg27
F1.0
ssS'<subj> working employee'
p622
(dp623
g21
I0
sg22
I1
sg23
g24
sg25
S'working employee'
p624
sg27
F0.0
ssS'working <dobj>'
p625
(dp626
g21
I0
sg22
I1
sg23
g33
sg25
S'working'
p627
sg27
F0.0
ssS'used <dobj>'
p628
(dp629
g21
I1
sg22
I3
sg23
g33
sg25
S'used'
p630
sg27
F0.3333333333333333
ssS'<subj> had victim'
p631
(dp632
g21
I0
sg22
I1
sg23
g24
sg25
S'had victim'
p633
sg27
F0.0
ssS'protect <dobj>'
p634
(dp635
g21
I1
sg22
I1
sg23
g33
sg25
S'protect'
p636
sg27
F1.0
ssV<subj> capture
p637
(dp638
g12
I9
sg13
I9
sg14
g15
sg16
Vcapture
p639
sg18
F1.0
ssS'<subj> is discarded'
p640
(dp641
g44
g167
sg46
I1
sg47
I1
sg48
S'is discarded'
p642
sg50
F1.0
ssS'<subj> counting'
p643
(dp644
g21
I0
sg22
I1
sg23
g24
sg25
S'counting'
p645
sg27
F0.0
ssS'<subj> sold kits'
p646
(dp647
g44
g167
sg46
I1
sg47
I1
sg48
S'sold kits'
p648
sg50
F1.0
ssVgive <dobj>
p649
(dp650
g80
g212
sg82
I45
sg83
I45
sg84
Vgive
p651
sg86
F1.0
ssS'<subj> be used'
p652
(dp653
g21
I1
sg22
I2
sg23
g24
sg25
S'be used'
p654
sg27
F0.5
ssS'<subj> bypass'
p655
(dp656
g21
I1
sg22
I1
sg23
g24
sg25
S'bypass'
p657
sg27
F1.0
ssS'<subj> tell'
p658
(dp659
g21
I0
sg22
I1
sg23
g24
sg25
S'tell'
p660
sg27
F0.0
ssV<subj> Called D
p661
(dp662
g12
I7
sg13
I7
sg14
g15
sg16
VCalled D
p663
sg18
F1.0
ssV<subj> Called
p664
(dp665
g12
I23
sg13
I23
sg14
g15
sg16
VCalled
p666
sg18
F1.0
ssS'<subj> learning'
p667
(dp668
g360
I8
sg361
I8
sg362
S'subj'
p669
sg364
S'learning'
p670
sg366
F1.0
ssS'<subj> install'
p671
(dp672
g44
g167
sg46
I1
sg47
I1
sg48
S'install'
p673
sg50
F1.0
ssV<subj> Called L
p674
(dp675
g12
I7
sg13
I7
sg14
g15
sg16
VCalled L
p676
sg18
F1.0
ssS'conduct <dobj>'
p677
(dp678
g21
I1
sg22
I1
sg23
g33
sg25
S'conduct'
p679
sg27
F1.0
ssS'<subj> commit identity'
p680
(dp681
g21
I0
sg22
I1
sg23
g24
sg25
S'commit identity'
p682
sg27
F0.0
ssS'to provide <dobj>'
p683
(dp684
g21
I1
sg22
I1
sg23
g33
sg25
S'to provide'
p685
sg27
F1.0
ssS'<subj> avoid'
p686
(dp687
g21
I0
sg22
I1
sg23
g24
sg25
S'avoid'
p688
sg27
F0.0
ssS'<subj> working companies'
p689
(dp690
g21
I0
sg22
I1
sg23
g24
sg25
S'working companies'
p691
sg27
F0.0
ssV<subj> imagined worlds
p692
(dp693
g12
I9
sg13
I9
sg14
g15
sg16
Vimagined worlds
p694
sg18
F1.0
ssS'<subj> intended'
p695
(dp696
g44
g167
sg46
I1
sg47
I1
sg48
S'intended'
p697
sg50
F1.0
ssS'increasing <dobj>'
p698
(dp699
g21
I1
sg22
I1
sg23
g33
sg25
S'increasing'
p700
sg27
F1.0
ssS'<subj> taking'
p701
(dp702
g71
I3
sg72
I3
sg73
g74
sg75
S'taking'
p703
sg77
F1.0
ssS'reach <dobj>'
p704
(dp705
g44
g45
sg46
I1
sg47
I1
sg48
S'reach'
p706
sg50
F1.0
ssS'acting <dobj>'
p707
(dp708
g21
I1
sg22
I1
sg23
g33
sg25
S'acting'
p709
sg27
F1.0
ssS'<subj> are pointed'
p710
(dp711
g21
I1
sg22
I1
sg23
g24
sg25
S'are pointed'
p712
sg27
F1.0
ss.